target datalayout = "e-m:e-p270:32:32-p271:32:32-p272:64:64-i64:64-i128:128-f80:128-n8:16:32:64-S128"
target triple = "x86_64-pc-linux-gnu"

%struct.PacketOutputStream = type { ptr, i32, ptr, %struct.PacketData, i32, i8, %struct.jdwpPacket, [300 x i8], ptr }
%struct.PacketData = type { i32, ptr, ptr }
%struct.jdwpPacket = type { %union.anon }
%union.anon = type { %struct.jdwpCmdPacket }
%struct.jdwpCmdPacket = type { i32, i32, i8, i8, i8, ptr }
%struct.jdwpReplyPacket = type { i32, i32, i8, i16, ptr }

; Function Attrs: nounwind uwtable
define internal i32 @outStream_send(ptr noundef %0) #0 {
  %2 = alloca i32, align 4
  %3 = alloca ptr, align 8
  %4 = alloca i32, align 4
  %5 = alloca i32, align 4
  %6 = alloca ptr, align 8
  %7 = alloca ptr, align 8
  %8 = alloca ptr, align 8
  store ptr %0, ptr %3, align 8
  store i32 0, ptr %5, align 4
  %9 = load ptr, ptr %3, align 8
  %10 = getelementptr inbounds %struct.PacketOutputStream, ptr %9, i32 0, i32 3
  %11 = getelementptr inbounds %struct.PacketData, ptr %10, i32 0, i32 2
  %12 = load ptr, ptr %11, align 8
  %13 = icmp eq ptr %12, null
  br i1 %13, label %14, label %36

14:                                               ; preds = %1
  %15 = load ptr, ptr %3, align 8
  %16 = getelementptr inbounds %struct.PacketOutputStream, ptr %15, i32 0, i32 3
  %17 = getelementptr inbounds %struct.PacketData, ptr %16, i32 0, i32 0
  %18 = load i32, ptr %17, align 8
  %19 = add nsw i32 11, %18
  %20 = load ptr, ptr %3, align 8
  %21 = getelementptr inbounds %struct.PacketOutputStream, ptr %20, i32 0, i32 6
  %22 = getelementptr inbounds %struct.jdwpPacket, ptr %21, i32 0, i32 0
  %23 = getelementptr inbounds %struct.jdwpCmdPacket, ptr %22, i32 0, i32 0
  store i32 %19, ptr %23, align 8
  %24 = load ptr, ptr %3, align 8
  %25 = getelementptr inbounds %struct.PacketOutputStream, ptr %24, i32 0, i32 3
  %26 = getelementptr inbounds %struct.PacketData, ptr %25, i32 0, i32 1
  %27 = load ptr, ptr %26, align 8
  %28 = load ptr, ptr %3, align 8
  %29 = getelementptr inbounds %struct.PacketOutputStream, ptr %28, i32 0, i32 6
  %30 = getelementptr inbounds %struct.jdwpPacket, ptr %29, i32 0, i32 0
  %31 = getelementptr inbounds %struct.jdwpCmdPacket, ptr %30, i32 0, i32 5
  store ptr %27, ptr %31, align 8
  %32 = load ptr, ptr %3, align 8
  %33 = getelementptr inbounds %struct.PacketOutputStream, ptr %32, i32 0, i32 6
  %34 = call i32 @transport_sendPacket(ptr noundef %33)
  store i32 %34, ptr %4, align 4
  %35 = load i32, ptr %4, align 4
  store i32 %35, ptr %2, align 4
  br label %103

36:                                               ; preds = %1
  store i32 0, ptr %5, align 4
  %37 = load ptr, ptr %3, align 8
  %38 = getelementptr inbounds %struct.PacketOutputStream, ptr %37, i32 0, i32 3
  store ptr %38, ptr %6, align 8
  br label %39

39:                                               ; preds = %48, %36
  %40 = load ptr, ptr %6, align 8
  %41 = getelementptr inbounds %struct.PacketData, ptr %40, i32 0, i32 0
  %42 = load i32, ptr %41, align 8
  %43 = load i32, ptr %5, align 4
  %44 = add nsw i32 %43, %42
  store i32 %44, ptr %5, align 4
  %45 = load ptr, ptr %6, align 8
  %46 = getelementptr inbounds %struct.PacketData, ptr %45, i32 0, i32 2
  %47 = load ptr, ptr %46, align 8
  store ptr %47, ptr %6, align 8
  br label %48

48:                                               ; preds = %39
  %49 = load ptr, ptr %6, align 8
  %50 = icmp ne ptr %49, null
  br i1 %50, label %39, label %51, !llvm.loop !9

51:                                               ; preds = %48
  %52 = load i32, ptr %5, align 4
  %53 = call ptr @jvmtiAllocate(i32 noundef %52)
  store ptr %53, ptr %7, align 8
  %54 = load ptr, ptr %7, align 8
  %55 = icmp eq ptr %54, null
  br i1 %55, label %56, label %57

56:                                               ; preds = %51
  store i32 110, ptr %2, align 4
  br label %103

57:                                               ; preds = %51
  %58 = load ptr, ptr %7, align 8
  store ptr %58, ptr %8, align 8
  %59 = load ptr, ptr %3, align 8
  %60 = getelementptr inbounds %struct.PacketOutputStream, ptr %59, i32 0, i32 3
  store ptr %60, ptr %6, align 8
  br label %61

61:                                               ; preds = %64, %57
  %62 = load ptr, ptr %6, align 8
  %63 = icmp ne ptr %62, null
  br i1 %63, label %64, label %82

64:                                               ; preds = %61
  %65 = load ptr, ptr %8, align 8
  %66 = load ptr, ptr %6, align 8
  %67 = getelementptr inbounds %struct.PacketData, ptr %66, i32 0, i32 1
  %68 = load ptr, ptr %67, align 8
  %69 = load ptr, ptr %6, align 8
  %70 = getelementptr inbounds %struct.PacketData, ptr %69, i32 0, i32 0
  %71 = load i32, ptr %70, align 8
  %72 = sext i32 %71 to i64
  call void @llvm.memcpy.p0.p0.i64(ptr align 1 %65, ptr align 1 %68, i64 %72, i1 false)
  %73 = load ptr, ptr %6, align 8
  %74 = getelementptr inbounds %struct.PacketData, ptr %73, i32 0, i32 0
  %75 = load i32, ptr %74, align 8
  %76 = load ptr, ptr %8, align 8
  %77 = sext i32 %75 to i64
  %78 = getelementptr inbounds i8, ptr %76, i64 %77
  store ptr %78, ptr %8, align 8
  %79 = load ptr, ptr %6, align 8
  %80 = getelementptr inbounds %struct.PacketData, ptr %79, i32 0, i32 2
  %81 = load ptr, ptr %80, align 8
  store ptr %81, ptr %6, align 8
  br label %61, !llvm.loop !10

82:                                               ; preds = %61
  %83 = load i32, ptr %5, align 4
  %84 = add nsw i32 11, %83
  %85 = load ptr, ptr %3, align 8
  %86 = getelementptr inbounds %struct.PacketOutputStream, ptr %85, i32 0, i32 6
  %87 = getelementptr inbounds %struct.jdwpPacket, ptr %86, i32 0, i32 0
  %88 = getelementptr inbounds %struct.jdwpCmdPacket, ptr %87, i32 0, i32 0
  store i32 %84, ptr %88, align 8
  %89 = load ptr, ptr %7, align 8
  %90 = load ptr, ptr %3, align 8
  %91 = getelementptr inbounds %struct.PacketOutputStream, ptr %90, i32 0, i32 6
  %92 = getelementptr inbounds %struct.jdwpPacket, ptr %91, i32 0, i32 0
  %93 = getelementptr inbounds %struct.jdwpCmdPacket, ptr %92, i32 0, i32 5
  store ptr %89, ptr %93, align 8
  %94 = load ptr, ptr %3, align 8
  %95 = getelementptr inbounds %struct.PacketOutputStream, ptr %94, i32 0, i32 6
  %96 = call i32 @transport_sendPacket(ptr noundef %95)
  store i32 %96, ptr %4, align 4
  %97 = load ptr, ptr %3, align 8
  %98 = getelementptr inbounds %struct.PacketOutputStream, ptr %97, i32 0, i32 6
  %99 = getelementptr inbounds %struct.jdwpPacket, ptr %98, i32 0, i32 0
  %100 = getelementptr inbounds %struct.jdwpCmdPacket, ptr %99, i32 0, i32 5
  store ptr null, ptr %100, align 8
  %101 = load ptr, ptr %7, align 8
  call void @jvmtiDeallocate(ptr noundef %101)
  %102 = load i32, ptr %4, align 4
  store i32 %102, ptr %2, align 4
  br label %103

103:                                              ; preds = %82, %56, %14
  %104 = load i32, ptr %2, align 4
  ret i32 %104
}

; Function Attrs: nounwind uwtable
define hidden void @outStream_sendReply(ptr noundef %0) #0 {
  %2 = alloca ptr, align 8
  %3 = alloca i32, align 4
  store ptr %0, ptr %2, align 8
  %4 = load ptr, ptr %2, align 8
  %5 = getelementptr inbounds %struct.PacketOutputStream, ptr %4, i32 0, i32 4
  %6 = load i32, ptr %5, align 8
  %7 = icmp ne i32 %6, 0
  br i1 %7, label %8, label %21

8:                                                ; preds = %1
  %9 = load ptr, ptr %2, align 8
  %10 = getelementptr inbounds %struct.PacketOutputStream, ptr %9, i32 0, i32 6
  %11 = getelementptr inbounds %struct.jdwpPacket, ptr %10, i32 0, i32 0
  %12 = getelementptr inbounds %struct.jdwpReplyPacket, ptr %11, i32 0, i32 0
  store i32 0, ptr %12, align 8
  %13 = load ptr, ptr %2, align 8
  %14 = getelementptr inbounds %struct.PacketOutputStream, ptr %13, i32 0, i32 4
  %15 = load i32, ptr %14, align 8
  %16 = trunc i32 %15 to i16
  %17 = load ptr, ptr %2, align 8
  %18 = getelementptr inbounds %struct.PacketOutputStream, ptr %17, i32 0, i32 6
  %19 = getelementptr inbounds %struct.jdwpPacket, ptr %18, i32 0, i32 0
  %20 = getelementptr inbounds %struct.jdwpReplyPacket, ptr %19, i32 0, i32 3
  store i16 %16, ptr %20, align 2
  br label %21

21:                                               ; preds = %8, %1
  %22 = load ptr, ptr %2, align 8
  %23 = call i32 @outStream_send(ptr noundef %22)
  store i32 %23, ptr %3, align 4
  %24 = load i32, ptr %3, align 4
  %25 = icmp eq i32 %24, 0
  br i1 %25, label %26, label %29

26:                                               ; preds = %21
  %27 = load ptr, ptr %2, align 8
  %28 = getelementptr inbounds %struct.PacketOutputStream, ptr %27, i32 0, i32 5
  store i8 1, ptr %28, align 4
  br label %29

29:                                               ; preds = %26, %21
  ret void
}