; Function Attrs: nounwind uwtable
define hidden void @outStream_sendReply(ptr noundef %0) local_unnamed_addr #0 {
  %2 = getelementptr inbounds i8, ptr %0, i64 48
  %3 = load i32, ptr %2, align 8
  %.not = icmp eq i32 %3, 0
  br i1 %.not, label %8, label %4

4:                                                ; preds = %1
  %5 = getelementptr inbounds i8, ptr %0, i64 56
  store i32 0, ptr %5, align 8
  %6 = trunc i32 %3 to i16
  %7 = getelementptr inbounds i8, ptr %0, i64 66
  store i16 %6, ptr %7, align 2
  br label %8

8:                                                ; preds = %4, %1
  %9 = getelementptr inbounds i8, ptr %0, i64 24
  %10 = getelementptr inbounds i8, ptr %0, i64 40
  %11 = load ptr, ptr %10, align 8
  %12 = icmp eq ptr %11, null
  br i1 %12, label %13, label %.preheader36.i

13:                                               ; preds = %8
  %14 = load i32, ptr %9, align 8
  %15 = add nsw i32 %14, 11
  %16 = getelementptr inbounds i8, ptr %0, i64 56
  store i32 %15, ptr %16, align 8
  %17 = getelementptr inbounds i8, ptr %0, i64 32
  %18 = load ptr, ptr %17, align 8
  %19 = getelementptr inbounds i8, ptr %0, i64 72
  store ptr %18, ptr %19, align 8
  %20 = tail call i32 @transport_sendPacket(ptr noundef nonnull %16) #7
  br label %outStream_send.exit

.preheader36.i:                                   ; preds = %8, %.preheader36.i
  %.033.i = phi i32 [ %22, %.preheader36.i ], [ 0, %8 ]
  %.032.i = phi ptr [ %24, %.preheader36.i ], [ %9, %8 ]
  %21 = load i32, ptr %.032.i, align 8
  %22 = add nsw i32 %21, %.033.i
  %23 = getelementptr inbounds i8, ptr %.032.i, i64 16
  %24 = load ptr, ptr %23, align 8
  %.not.i = icmp eq ptr %24, null
  br i1 %.not.i, label %25, label %.preheader36.i, !llvm.loop !9

25:                                               ; preds = %.preheader36.i
  %26 = tail call ptr @jvmtiAllocate(i32 noundef %22) #7
  %27 = icmp eq ptr %26, null
  br i1 %27, label %outStream_send.exit.thread, label %.preheader.i

.preheader.i:                                     ; preds = %25, %.preheader.i
  %.038.i = phi ptr [ %34, %.preheader.i ], [ %26, %25 ]
  %.137.i = phi ptr [ %36, %.preheader.i ], [ %9, %25 ]
  %28 = getelementptr inbounds i8, ptr %.137.i, i64 8
  %29 = load ptr, ptr %28, align 8
  %30 = load i32, ptr %.137.i, align 8
  %31 = sext i32 %30 to i64
  tail call void @llvm.memcpy.p0.p0.i64(ptr align 1 %.038.i, ptr align 1 %29, i64 %31, i1 false)
  %32 = load i32, ptr %.137.i, align 8
  %33 = sext i32 %32 to i64
  %34 = getelementptr inbounds i8, ptr %.038.i, i64 %33
  %35 = getelementptr inbounds i8, ptr %.137.i, i64 16
  %36 = load ptr, ptr %35, align 8
  %.not35.i = icmp eq ptr %36, null
  br i1 %.not35.i, label %37, label %.preheader.i, !llvm.loop !10

37:                                               ; preds = %.preheader.i
  %38 = add nsw i32 %22, 11
  %39 = getelementptr inbounds i8, ptr %0, i64 56
  store i32 %38, ptr %39, align 8
  %40 = getelementptr inbounds i8, ptr %0, i64 72
  store ptr %26, ptr %40, align 8
  %41 = tail call i32 @transport_sendPacket(ptr noundef nonnull %39) #7
  store ptr null, ptr %40, align 8
  tail call void @jvmtiDeallocate(ptr noundef nonnull %26) #7
  br label %outStream_send.exit

outStream_send.exit:                              ; preds = %13, %37
  %.031.i = phi i32 [ %20, %13 ], [ %41, %37 ]
  %42 = icmp eq i32 %.031.i, 0
  br i1 %42, label %43, label %outStream_send.exit.thread

43:                                               ; preds = %outStream_send.exit
  %44 = getelementptr inbounds i8, ptr %0, i64 52
  store i8 1, ptr %44, align 4
  br label %outStream_send.exit.thread

outStream_send.exit.thread:                       ; preds = %25, %43, %outStream_send.exit
  ret void
}